target datalayout = "e-m:e-p270:32:32-p271:32:32-p272:64:64-i64:64-i128:128-f80:128-n8:16:32:64-S128"
target triple = "x86_64-unknown-linux-gnu"

%class.params_ref = type { ptr }
%"class.smt::theory_fpa" = type { %"class.smt::theory.base", %class.th_rewriter, %class.fpa2bv_converter_wrapped, %struct.fpa2bv_rewriter, %class.trail_stack, ptr, ptr, ptr, ptr, %class.obj_map.65, i8, [7 x i8], %class.obj_hashtable.70 }
%"class.smt::theory.base" = type <{ ptr, i32, [4 x i8], ptr, ptr, %class.ptr_vector, %class.svector, i32, i8 }>
%class.ptr_vector = type { %class.vector }
%class.vector = type { ptr }
%class.svector = type { %class.vector.0 }
%class.vector.0 = type { ptr }
%class.th_rewriter = type { ptr, %class.params_ref }
%class.fpa2bv_converter_wrapped = type { %class.fpa2bv_converter, ptr }
%class.fpa2bv_converter = type { ptr, ptr, %class.bool_rewriter, %class.bv_util, %class.arith_util, %"class.datatype::util", %class.seq_util, %class.fpa_util, ptr, ptr, ptr, i8, [7 x i8], %class.obj_map.36, %class.obj_map.36, %class.obj_map.13, %class.obj_map.41, %class.ref_vector.33 }
%class.bool_rewriter = type { ptr, i8, i8, i8, i8, i8, i8, i32, i8, i32, i32, i8, %class.ptr_vector.1, %class.ptr_vector.1, %class.svector, %class.svector }
%class.ptr_vector.1 = type { %class.vector.2 }
%class.vector.2 = type { ptr }
%class.bv_util = type { %class.bv_recognizers, ptr, ptr }
%class.bv_recognizers = type { i32 }
%class.arith_util = type { ptr, ptr }
%"class.datatype::util" = type { ptr, i32, ptr, %class.obj_map, %class.obj_map.3, %class.obj_map.8, %class.obj_map.13, %class.obj_map.13, %class.obj_map.13, %class.obj_map.18, %class.obj_map.18, %class.obj_map.18, %class.ref_vector, %class.ref_vector_core.25, %class.ptr_vector.28, i32, %class.ptr_vector.30 }
%class.obj_map = type { %class.core_hashtable }
%class.core_hashtable = type <{ ptr, i32, i32, i32, [4 x i8] }>
%class.obj_map.3 = type { %class.core_hashtable.4 }
%class.core_hashtable.4 = type <{ ptr, i32, i32, i32, [4 x i8] }>
%class.obj_map.8 = type { %class.core_hashtable.9 }
%class.core_hashtable.9 = type <{ ptr, i32, i32, i32, [4 x i8] }>
%class.obj_map.18 = type { %class.core_hashtable.19 }
%class.core_hashtable.19 = type <{ ptr, i32, i32, i32, [4 x i8] }>
%class.ref_vector = type { %class.ref_vector_core }
%class.ref_vector_core = type { %class.ref_manager_wrapper, %class.ptr_vector.23 }
%class.ref_manager_wrapper = type { ptr }
%class.ptr_vector.23 = type { %class.vector.24 }
%class.vector.24 = type { ptr }
%class.ref_vector_core.25 = type { %class.ptr_vector.26 }
%class.ptr_vector.26 = type { %class.vector.27 }
%class.vector.27 = type { ptr }
%class.ptr_vector.28 = type { %class.vector.29 }
%class.vector.29 = type { ptr }
%class.ptr_vector.30 = type { %class.vector.31 }
%class.vector.31 = type { ptr }
%class.seq_util = type { ptr, ptr, ptr, i32, [4 x i8], %"class.seq_util::str", %"class.seq_util::rex" }
%"class.seq_util::str" = type <{ ptr, ptr, i32, [4 x i8] }>
%"class.seq_util::rex" = type { ptr, ptr, i32, %class.vector.32, %class.ref_vector.33, %"struct.seq_util::rex::info", %"struct.seq_util::rex::info" }
%class.vector.32 = type { ptr }
%"struct.seq_util::rex::info" = type { i32, i8, i32, i32 }
%class.fpa_util = type { ptr, ptr, i32, %class.arith_util, %class.bv_util }
%class.obj_map.36 = type { %class.core_hashtable.37 }
%class.core_hashtable.37 = type <{ ptr, i32, i32, i32, [4 x i8] }>
%class.obj_map.13 = type { %class.core_hashtable.14 }
%class.core_hashtable.14 = type <{ ptr, i32, i32, i32, [4 x i8] }>
%class.obj_map.41 = type { %class.core_hashtable.42 }
%class.core_hashtable.42 = type <{ ptr, i32, i32, i32, [4 x i8] }>
%class.ref_vector.33 = type { %class.ref_vector_core.34 }
%class.ref_vector_core.34 = type { %class.ref_manager_wrapper.35, %class.ptr_vector.1 }
%class.ref_manager_wrapper.35 = type { ptr }
%struct.fpa2bv_rewriter = type { %class.rewriter_tpl, %struct.fpa2bv_rewriter_cfg }
%class.rewriter_tpl = type { %class.rewriter_core, ptr, i32, %class.ptr_vector.1, %class.var_shifter, %class.inv_var_shifter, %class.obj_ref, %class.obj_ref.59, %class.obj_ref.59, %class.svector }
%class.rewriter_core = type { ptr, ptr, i8, i8, %class.ptr_vector.46, ptr, %class.svector.48, %class.ref_vector.33, %class.ptr_vector.46, ptr, %class.ref_vector.50, %class.obj_hashtable, ptr, i32, %class.svector.57 }
%class.svector.48 = type { %class.vector.49 }
%class.vector.49 = type { ptr }
%class.ptr_vector.46 = type { %class.vector.47 }
%class.vector.47 = type { ptr }
%class.ref_vector.50 = type { %class.ref_vector_core.51 }
%class.ref_vector_core.51 = type { %class.ref_manager_wrapper.52, %class.ptr_vector.53 }
%class.ref_manager_wrapper.52 = type { ptr }
%class.ptr_vector.53 = type { %class.vector.54 }
%class.vector.54 = type { ptr }
%class.obj_hashtable = type { %class.core_hashtable.base.56, [4 x i8] }
%class.core_hashtable.base.56 = type <{ ptr, i32, i32, i32 }>
%class.svector.57 = type { %class.vector.58 }
%class.vector.58 = type { ptr }
%class.var_shifter = type <{ %class.var_shifter_core, i32, i32, i32, [4 x i8] }>
%class.var_shifter_core = type { %class.rewriter_core }
%class.inv_var_shifter = type <{ %class.var_shifter_core, i32, [4 x i8] }>
%class.obj_ref = type { ptr, ptr }
%class.obj_ref.59 = type { ptr, ptr }
%struct.fpa2bv_rewriter_cfg = type <{ ptr, %class.ref_vector.33, ptr, %class.ref_vector.60, i64, i32, [4 x i8] }>
%class.ref_vector.60 = type { %class.ref_vector_core.61 }
%class.ref_vector_core.61 = type { %class.ref_manager_wrapper.62, %class.ptr_vector.30 }
%class.ref_manager_wrapper.62 = type { ptr }
%class.trail_stack = type { %class.ptr_vector.63, %class.svector, %class.region }
%class.ptr_vector.63 = type { %class.vector.64 }
%class.vector.64 = type { ptr }
%class.region = type { ptr, ptr, ptr, ptr, ptr }
%class.obj_map.65 = type { %class.core_hashtable.66 }
%class.core_hashtable.66 = type <{ ptr, i32, i32, i32, [4 x i8] }>
%class.obj_hashtable.70 = type { %class.core_hashtable.base.74, [4 x i8] }
%class.core_hashtable.base.74 = type <{ ptr, i32, i32, i32 }>
%"class.smt::theory" = type <{ ptr, i32, [4 x i8], ptr, ptr, %class.ptr_vector, %class.svector, i32, i8, [3 x i8] }>
%class.fpa_value_factory = type { %class.value_factory.base, %class.fpa_util }
%class.value_factory.base = type <{ ptr, ptr, i32 }>

; Function Attrs: mustprogress uwtable
define linkonce_odr hidden void @_ZN17fpa_value_factoryC2ER11ast_manageri(ptr noundef nonnull align 8 dereferenceable(88) %this, ptr noundef nonnull align 8 dereferenceable(976) %m, i32 noundef %fid) unnamed_addr #5 comdat align 2 personality ptr @__gxx_personality_v0 {
entry:
  %this.addr = alloca ptr, align 8
  %m.addr = alloca ptr, align 8
  %fid.addr = alloca i32, align 4
  %exn.slot = alloca ptr, align 8
  %ehselector.slot = alloca i32, align 4
  store ptr %this, ptr %this.addr, align 8
  store ptr %m, ptr %m.addr, align 8
  store i32 %fid, ptr %fid.addr, align 4
  %this1 = load ptr, ptr %this.addr, align 8
  %0 = load ptr, ptr %m.addr, align 8
  %1 = load i32, ptr %fid.addr, align 4
  call void @_ZN13value_factoryC2ER11ast_manageri(ptr noundef nonnull align 8 dereferenceable(20) %this1, ptr noundef nonnull align 8 dereferenceable(976) %0, i32 noundef %1)
  store ptr getelementptr inbounds ({ [9 x ptr] }, ptr @_ZTV17fpa_value_factory, i32 0, i32 0, i32 2), ptr %this1, align 8
  %m_util = getelementptr inbounds %class.fpa_value_factory, ptr %this1, i32 0, i32 1
  %2 = load ptr, ptr %m.addr, align 8
  invoke void @_ZN8fpa_utilC1ER11ast_manager(ptr noundef nonnull align 8 dereferenceable(64) %m_util, ptr noundef nonnull align 8 dereferenceable(976) %2)
          to label %invoke.cont unwind label %lpad

invoke.cont:                                      ; preds = %entry
  ret void

lpad:                                             ; preds = %entry
  %3 = landingpad { ptr, i32 }
          cleanup
  %4 = extractvalue { ptr, i32 } %3, 0
  store ptr %4, ptr %exn.slot, align 8
  %5 = extractvalue { ptr, i32 } %3, 1
  store i32 %5, ptr %ehselector.slot, align 4
  call void @_ZN13value_factoryD2Ev(ptr noundef nonnull align 8 dereferenceable(20) %this1) #3
  br label %eh.resume

eh.resume:                                        ; preds = %lpad
  %exn = load ptr, ptr %exn.slot, align 8
  %sel = load i32, ptr %ehselector.slot, align 4
  %lpad.val = insertvalue { ptr, i32 } poison, ptr %exn, 0
  %lpad.val2 = insertvalue { ptr, i32 } %lpad.val, i32 %sel, 1
  resume { ptr, i32 } %lpad.val2
}

; Function Attrs: mustprogress nounwind uwtable
define linkonce_odr hidden noundef i32 @_ZNK3smt6theory13get_family_idEv(ptr noundef nonnull align 8 dereferenceable(53) %this) #4 comdat align 2 {
entry:
  %this.addr = alloca ptr, align 8
  store ptr %this, ptr %this.addr, align 8
  %this1 = load ptr, ptr %this.addr, align 8
  %m_id = getelementptr inbounds %"class.smt::theory", ptr %this1, i32 0, i32 1
  %0 = load i32, ptr %m_id, align 8
  ret i32 %0
}

; Function Attrs: mustprogress uwtable
define hidden void @_ZN3smt10theory_fpa10init_modelERNS_15model_generatorE(ptr noundef nonnull align 8 dereferenceable(1584) %this, ptr noundef nonnull align 8 dereferenceable(104) %mg) unnamed_addr #5 align 2 {
entry:
  %this.addr = alloca ptr, align 8
  %mg.addr = alloca ptr, align 8
  store ptr %this, ptr %this.addr, align 8
  store ptr %mg, ptr %mg.addr, align 8
  %this1 = load ptr, ptr %this.addr, align 8
  %call = call noalias noundef ptr @_ZN6memory8allocateEm(i64 noundef 88)
  %m = getelementptr inbounds %"class.smt::theory", ptr %this1, i32 0, i32 4
  %0 = load ptr, ptr %m, align 8
  %call2 = call noundef i32 @_ZNK3smt6theory13get_family_idEv(ptr noundef nonnull align 8 dereferenceable(53) %this1)
  call void @_ZN17fpa_value_factoryC2ER11ast_manageri(ptr noundef nonnull align 8 dereferenceable(88) %call, ptr noundef nonnull align 8 dereferenceable(976) %0, i32 noundef %call2)
  %m_factory = getelementptr inbounds %"class.smt::theory_fpa", ptr %this1, i32 0, i32 5
  store ptr %call, ptr %m_factory, align 8
  %1 = load ptr, ptr %mg.addr, align 8
  %m_factory3 = getelementptr inbounds %"class.smt::theory_fpa", ptr %this1, i32 0, i32 5
  %2 = load ptr, ptr %m_factory3, align 8
  call void @_ZN3smt15model_generator16register_factoryEP13value_factory(ptr noundef nonnull align 8 dereferenceable(104) %1, ptr noundef %2)
  ret void
}