; Function Attrs: mustprogress uwtable
define hidden void @_ZN3smt10theory_fpa10init_modelERNS_15model_generatorE(ptr nocapture noundef nonnull align 8 dereferenceable(1584) %this, ptr noundef nonnull align 8 dereferenceable(104) %mg) unnamed_addr #3 align 2 personality ptr @__gxx_personality_v0 {
entry:
  %call = tail call noalias noundef ptr @_ZN6memory8allocateEm(i64 noundef 88)
  %m = getelementptr inbounds i8, ptr %this, i64 24
  %0 = load ptr, ptr %m, align 8
  %m_id.i = getelementptr inbounds i8, ptr %this, i64 8
  %1 = load i32, ptr %m_id.i, align 8
  tail call void @_ZN13value_factoryC2ER11ast_manageri(ptr noundef nonnull align 8 dereferenceable(20) %call, ptr noundef nonnull align 8 dereferenceable(976) %0, i32 noundef %1)
  store ptr getelementptr inbounds ({ [9 x ptr] }, ptr @_ZTV17fpa_value_factory, i64 0, i32 0, i64 2), ptr %call, align 8
  %m_util.i = getelementptr inbounds i8, ptr %call, i64 24
  invoke void @_ZN8fpa_utilC1ER11ast_manager(ptr noundef nonnull align 8 dereferenceable(64) %m_util.i, ptr noundef nonnull align 8 dereferenceable(976) %0)
          to label %_ZN17fpa_value_factoryC2ER11ast_manageri.exit unwind label %lpad.i

lpad.i:                                           ; preds = %entry
  %2 = landingpad { ptr, i32 }
          cleanup
  tail call void @_ZN13value_factoryD2Ev(ptr noundef nonnull align 8 dereferenceable(20) %call) #18
  resume { ptr, i32 } %2

_ZN17fpa_value_factoryC2ER11ast_manageri.exit:    ; preds = %entry
  %m_factory = getelementptr inbounds i8, ptr %this, i64 1496
  store ptr %call, ptr %m_factory, align 8
  tail call void @_ZN3smt15model_generator16register_factoryEP13value_factory(ptr noundef nonnull align 8 dereferenceable(104) %mg, ptr noundef nonnull %call)
  ret void
}